; Function Attrs: nounwind uwtable
define void @dt_control_log_busy_enter() local_unnamed_addr #0 {
  %1 = load ptr, ptr getelementptr inbounds nuw (i8, ptr @darktable, i64 88), align 8, !tbaa !107
  %2 = getelementptr inbounds nuw i8, ptr %1, i64 8960
  %3 = tail call i32 @pthread_mutex_lock(ptr noundef nonnull %2) #13
  %4 = getelementptr inbounds nuw i8, ptr %1, i64 8956
  %5 = load i32, ptr %4, align 4, !tbaa !97
  %6 = add nsw i32 %5, 1
  store i32 %6, ptr %4, align 4, !tbaa !97
  %7 = tail call i32 @pthread_mutex_unlock(ptr noundef nonnull %2) #13
  ret void
}